target datalayout = "e-m:e-p270:32:32-p271:32:32-p272:64:64-i64:64-i128:128-f80:128-n8:16:32:64-S128"
target triple = "x86_64-pc-linux-gnu"

%struct.hwloc_obj = type { i32, ptr, i32, ptr, i64, ptr, i32, i32, ptr, ptr, ptr, i32, ptr, ptr, i32, ptr, ptr, ptr, i32, i32, ptr, i32, ptr, i32, ptr, ptr, ptr, ptr, ptr, ptr, i32, ptr, i64 }
%struct.prte_hwloc_topo_data_t = type { %struct.pmix_object_t, i8, i32 }
%struct.pmix_object_t = type { %union.pthread_mutex_t, ptr, i32, %struct.pmix_tma }
%union.pthread_mutex_t = type { %struct.__pthread_mutex_s }
%struct.__pthread_mutex_s = type { i32, i32, i32, i32, i32, i16, i16, %struct.__pthread_internal_list }
%struct.__pthread_internal_list = type { ptr, ptr }
%struct.pmix_tma = type { ptr, ptr, ptr, ptr, ptr, ptr, ptr, ptr }

@.str.22 = private unnamed_addr constant [20 x i8] c"UNKNOWN HWLOC ERROR\00", align 1

; Function Attrs: inlinehint nounwind uwtable
define internal ptr @hwloc_get_next_obj_by_depth(ptr noundef %0, i32 noundef %1, ptr noundef %2) #6 {
  %4 = alloca ptr, align 8
  %5 = alloca ptr, align 8
  %6 = alloca i32, align 4
  %7 = alloca ptr, align 8
  store ptr %0, ptr %5, align 8, !tbaa !3
  store i32 %1, ptr %6, align 4, !tbaa !19
  store ptr %2, ptr %7, align 8, !tbaa !8
  %8 = load ptr, ptr %7, align 8, !tbaa !8
  %9 = icmp ne ptr %8, null
  br i1 %9, label %14, label %10

10:                                               ; preds = %3
  %11 = load ptr, ptr %5, align 8, !tbaa !3
  %12 = load i32, ptr %6, align 4, !tbaa !19
  %13 = call ptr @hwloc_get_obj_by_depth(ptr noundef %11, i32 noundef %12, i32 noundef 0) #11
  store ptr %13, ptr %4, align 8
  br label %25

14:                                               ; preds = %3
  %15 = load ptr, ptr %7, align 8, !tbaa !8
  %16 = getelementptr inbounds nuw %struct.hwloc_obj, ptr %15, i32 0, i32 6
  %17 = load i32, ptr %16, align 8, !tbaa !148
  %18 = load i32, ptr %6, align 4, !tbaa !19
  %19 = icmp ne i32 %17, %18
  br i1 %19, label %20, label %21

20:                                               ; preds = %14
  store ptr null, ptr %4, align 8
  br label %25

21:                                               ; preds = %14
  %22 = load ptr, ptr %7, align 8, !tbaa !8
  %23 = getelementptr inbounds nuw %struct.hwloc_obj, ptr %22, i32 0, i32 8
  %24 = load ptr, ptr %23, align 8, !tbaa !117
  store ptr %24, ptr %4, align 8
  br label %25

25:                                               ; preds = %21, %20, %10
  %26 = load ptr, ptr %4, align 8
  ret ptr %26
}

; Function Attrs: inlinehint nounwind uwtable
define internal ptr @hwloc_get_next_obj_by_type(ptr noundef %0, i32 noundef %1, ptr noundef %2) #6 {
  %4 = alloca ptr, align 8
  %5 = alloca ptr, align 8
  %6 = alloca i32, align 4
  %7 = alloca ptr, align 8
  %8 = alloca i32, align 4
  %9 = alloca i32, align 4
  store ptr %0, ptr %5, align 8, !tbaa !3
  store i32 %1, ptr %6, align 4, !tbaa !19
  store ptr %2, ptr %7, align 8, !tbaa !8
  call void @llvm.lifetime.start.p0(i64 4, ptr %8) #10
  %10 = load ptr, ptr %5, align 8, !tbaa !3
  %11 = load i32, ptr %6, align 4, !tbaa !19
  %12 = call i32 @hwloc_get_type_depth(ptr noundef %10, i32 noundef %11)
  store i32 %12, ptr %8, align 4, !tbaa !19
  %13 = load i32, ptr %8, align 4, !tbaa !19
  %14 = icmp eq i32 %13, -1
  br i1 %14, label %18, label %15

15:                                               ; preds = %3
  %16 = load i32, ptr %8, align 4, !tbaa !19
  %17 = icmp eq i32 %16, -2
  br i1 %17, label %18, label %19

18:                                               ; preds = %15, %3
  store ptr null, ptr %4, align 8
  store i32 1, ptr %9, align 4
  br label %24

19:                                               ; preds = %15
  %20 = load ptr, ptr %5, align 8, !tbaa !3
  %21 = load i32, ptr %8, align 4, !tbaa !19
  %22 = load ptr, ptr %7, align 8, !tbaa !8
  %23 = call ptr @hwloc_get_next_obj_by_depth(ptr noundef %20, i32 noundef %21, ptr noundef %22)
  store ptr %23, ptr %4, align 8
  store i32 1, ptr %9, align 4
  br label %24

24:                                               ; preds = %19, %18
  call void @llvm.lifetime.end.p0(i64 4, ptr %8) #10
  %25 = load ptr, ptr %4, align 8
  ret ptr %25
}

; Function Attrs: inlinehint nounwind willreturn memory(read) uwtable
define internal i32 @hwloc_get_nbobjs_by_type(ptr noundef %0, i32 noundef %1) #2 {
  %3 = alloca i32, align 4
  %4 = alloca ptr, align 8
  %5 = alloca i32, align 4
  %6 = alloca i32, align 4
  %7 = alloca i32, align 4
  store ptr %0, ptr %4, align 8, !tbaa !3
  store i32 %1, ptr %5, align 4, !tbaa !19
  call void @llvm.lifetime.start.p0(i64 4, ptr %6) #10
  %8 = load ptr, ptr %4, align 8, !tbaa !3
  %9 = load i32, ptr %5, align 4, !tbaa !19
  %10 = call i32 @hwloc_get_type_depth(ptr noundef %8, i32 noundef %9)
  store i32 %10, ptr %6, align 4, !tbaa !19
  %11 = load i32, ptr %6, align 4, !tbaa !19
  %12 = icmp eq i32 %11, -1
  br i1 %12, label %13, label %14

13:                                               ; preds = %2
  store i32 0, ptr %3, align 4
  store i32 1, ptr %7, align 4
  br label %22

14:                                               ; preds = %2
  %15 = load i32, ptr %6, align 4, !tbaa !19
  %16 = icmp eq i32 %15, -2
  br i1 %16, label %17, label %18

17:                                               ; preds = %14
  store i32 -1, ptr %3, align 4
  store i32 1, ptr %7, align 4
  br label %22

18:                                               ; preds = %14
  %19 = load ptr, ptr %4, align 8, !tbaa !3
  %20 = load i32, ptr %6, align 4, !tbaa !19
  %21 = call i32 @hwloc_get_nbobjs_by_depth(ptr noundef %19, i32 noundef %20) #11
  store i32 %21, ptr %3, align 4
  store i32 1, ptr %7, align 4
  br label %22

22:                                               ; preds = %18, %17, %13
  call void @llvm.lifetime.end.p0(i64 4, ptr %6) #10
  %23 = load i32, ptr %3, align 4
  ret i32 %23
}

; Function Attrs: inlinehint nounwind willreturn memory(read) uwtable
define internal ptr @hwloc_get_numanode_obj_by_os_index(ptr noundef %0, i32 noundef %1) #2 {
  %3 = alloca ptr, align 8
  %4 = alloca ptr, align 8
  %5 = alloca i32, align 4
  %6 = alloca ptr, align 8
  %7 = alloca i32, align 4
  store ptr %0, ptr %4, align 8, !tbaa !3
  store i32 %1, ptr %5, align 4, !tbaa !19
  call void @llvm.lifetime.start.p0(i64 8, ptr %6) #10
  store ptr null, ptr %6, align 8, !tbaa !8
  br label %8

8:                                                ; preds = %21, %2
  %9 = load ptr, ptr %4, align 8, !tbaa !3
  %10 = load ptr, ptr %6, align 8, !tbaa !8
  %11 = call ptr @hwloc_get_next_obj_by_type(ptr noundef %9, i32 noundef 13, ptr noundef %10)
  store ptr %11, ptr %6, align 8, !tbaa !8
  %12 = icmp ne ptr %11, null
  br i1 %12, label %13, label %22

13:                                               ; preds = %8
  %14 = load ptr, ptr %6, align 8, !tbaa !8
  %15 = getelementptr inbounds nuw %struct.hwloc_obj, ptr %14, i32 0, i32 2
  %16 = load i32, ptr %15, align 8, !tbaa !64
  %17 = load i32, ptr %5, align 4, !tbaa !19
  %18 = icmp eq i32 %16, %17
  br i1 %18, label %19, label %21

19:                                               ; preds = %13
  %20 = load ptr, ptr %6, align 8, !tbaa !8
  store ptr %20, ptr %3, align 8
  store i32 1, ptr %7, align 4
  br label %23

21:                                               ; preds = %13
  br label %8, !llvm.loop !65

22:                                               ; preds = %8
  store ptr null, ptr %3, align 8
  store i32 1, ptr %7, align 4
  br label %23

23:                                               ; preds = %22, %19
  call void @llvm.lifetime.end.p0(i64 8, ptr %6) #10
  %24 = load ptr, ptr %3, align 8
  ret ptr %24
}

; Function Attrs: inlinehint nounwind willreturn memory(read) uwtable
define internal ptr @hwloc_get_root_obj(ptr noundef %0) #2 {
  %2 = alloca ptr, align 8
  store ptr %0, ptr %2, align 8, !tbaa !3
  %3 = load ptr, ptr %2, align 8, !tbaa !3
  %4 = call ptr @hwloc_get_obj_by_depth(ptr noundef %3, i32 noundef 0, i32 noundef 0) #11
  ret ptr %4
}

; Function Attrs: nounwind uwtable
define i32 @prte_hwloc_base_get_nbobjs_by_type(ptr noundef %0, i32 noundef %1) #0 {
  %3 = alloca i32, align 4
  %4 = alloca ptr, align 8
  %5 = alloca i32, align 4
  %6 = alloca i32, align 4
  %7 = alloca i32, align 4
  %8 = alloca ptr, align 8
  %9 = alloca ptr, align 8
  %10 = alloca ptr, align 8
  %11 = alloca i32, align 4
  store ptr %0, ptr %4, align 8, !tbaa !3
  store i32 %1, ptr %5, align 4, !tbaa !19
  call void @llvm.lifetime.start.p0(i64 4, ptr %6) #10
  call void @llvm.lifetime.start.p0(i64 4, ptr %7) #10
  call void @llvm.lifetime.start.p0(i64 8, ptr %8) #10
  call void @llvm.lifetime.start.p0(i64 8, ptr %9) #10
  call void @llvm.lifetime.start.p0(i64 8, ptr %10) #10
  %12 = load i32, ptr %5, align 4, !tbaa !19
  %13 = icmp eq i32 13, %12
  br i1 %13, label %14, label %45

14:                                               ; preds = %2
  %15 = load ptr, ptr %4, align 8, !tbaa !3
  %16 = call ptr @hwloc_get_root_obj(ptr noundef %15) #11
  store ptr %16, ptr %9, align 8, !tbaa !8
  %17 = load ptr, ptr %9, align 8, !tbaa !8
  %18 = getelementptr inbounds nuw %struct.hwloc_obj, ptr %17, i32 0, i32 31
  %19 = load ptr, ptr %18, align 8, !tbaa !33
  store ptr %19, ptr %10, align 8, !tbaa !34
  %20 = load ptr, ptr %10, align 8, !tbaa !34
  %21 = icmp eq ptr null, %20
  br i1 %21, label %22, label %23

22:                                               ; preds = %14
  store i32 0, ptr %3, align 4
  store i32 1, ptr %11, align 4
  br label %54

23:                                               ; preds = %14
  store i32 0, ptr %7, align 4, !tbaa !19
  store i32 0, ptr %6, align 4, !tbaa !19
  br label %24

24:                                               ; preds = %40, %23
  %25 = load i32, ptr %6, align 4, !tbaa !19
  %26 = load ptr, ptr %10, align 8, !tbaa !34
  %27 = getelementptr inbounds nuw %struct.prte_hwloc_topo_data_t, ptr %26, i32 0, i32 2
  %28 = load i32, ptr %27, align 4, !tbaa !40
  %29 = icmp ult i32 %25, %28
  br i1 %29, label %30, label %43

30:                                               ; preds = %24
  %31 = load ptr, ptr %4, align 8, !tbaa !3
  %32 = load i32, ptr %6, align 4, !tbaa !19
  %33 = call ptr @hwloc_get_numanode_obj_by_os_index(ptr noundef %31, i32 noundef %32) #11
  store ptr %33, ptr %8, align 8, !tbaa !8
  %34 = load ptr, ptr %8, align 8, !tbaa !8
  %35 = icmp ne ptr null, %34
  br i1 %35, label %36, label %39

36:                                               ; preds = %30
  %37 = load i32, ptr %7, align 4, !tbaa !19
  %38 = add i32 %37, 1
  store i32 %38, ptr %7, align 4, !tbaa !19
  br label %39

39:                                               ; preds = %36, %30
  br label %40

40:                                               ; preds = %39
  %41 = load i32, ptr %6, align 4, !tbaa !19
  %42 = add i32 %41, 1
  store i32 %42, ptr %6, align 4, !tbaa !19
  br label %24, !llvm.loop !98

43:                                               ; preds = %24
  %44 = load i32, ptr %7, align 4, !tbaa !19
  store i32 %44, ptr %3, align 4
  store i32 1, ptr %11, align 4
  br label %54

45:                                               ; preds = %2
  %46 = load ptr, ptr %4, align 8, !tbaa !3
  %47 = load i32, ptr %5, align 4, !tbaa !19
  %48 = call i32 @hwloc_get_nbobjs_by_type(ptr noundef %46, i32 noundef %47) #11
  store i32 %48, ptr %7, align 4, !tbaa !19
  %49 = load i32, ptr %7, align 4, !tbaa !19
  %50 = icmp eq i32 -1, %49
  br i1 %50, label %51, label %52

51:                                               ; preds = %45
  call void (i32, ptr, ...) @pmix_output(i32 noundef 0, ptr noundef @.str.22)
  store i32 0, ptr %3, align 4
  store i32 1, ptr %11, align 4
  br label %54

52:                                               ; preds = %45
  %53 = load i32, ptr %7, align 4, !tbaa !19
  store i32 %53, ptr %3, align 4
  store i32 1, ptr %11, align 4
  br label %54

54:                                               ; preds = %52, %51, %43, %22
  call void @llvm.lifetime.end.p0(i64 8, ptr %10) #10
  call void @llvm.lifetime.end.p0(i64 8, ptr %9) #10
  call void @llvm.lifetime.end.p0(i64 8, ptr %8) #10
  call void @llvm.lifetime.end.p0(i64 4, ptr %7) #10
  call void @llvm.lifetime.end.p0(i64 4, ptr %6) #10
  %55 = load i32, ptr %3, align 4
  ret i32 %55
}