; Function Attrs: nounwind uwtable
define i32 @prte_hwloc_base_get_nbobjs_by_type(ptr noundef %0, i32 noundef %1) local_unnamed_addr #0 {
  %3 = icmp eq i32 %1, 13
  br i1 %3, label %4, label %29

4:                                                ; preds = %2
  %5 = tail call ptr @hwloc_get_obj_by_depth(ptr noundef readonly %0, i32 noundef 0, i32 noundef 0) #19
  %6 = getelementptr inbounds nuw i8, ptr %5, i64 232
  %7 = load ptr, ptr %6, align 8, !tbaa !24
  %8 = icmp eq ptr %7, null
  br i1 %8, label %hwloc_get_nbobjs_by_type.exit.thread23, label %.preheader25

.preheader25:                                     ; preds = %4
  %9 = getelementptr inbounds nuw i8, ptr %7, i64 124
  %10 = load i32, ptr %9, align 4, !tbaa !40
  %.not = icmp eq i32 %10, 0
  br i1 %.not, label %hwloc_get_nbobjs_by_type.exit.thread23, label %.preheader

.preheader:                                       ; preds = %.preheader25, %hwloc_get_numanode_obj_by_os_index.exit
  %.01627 = phi i32 [ %26, %hwloc_get_numanode_obj_by_os_index.exit ], [ 0, %.preheader25 ]
  %.01726 = phi i32 [ %spec.select, %hwloc_get_numanode_obj_by_os_index.exit ], [ 0, %.preheader25 ]
  br label %11

11:                                               ; preds = %.preheader, %22
  %.0.i = phi ptr [ %.0.i.i, %22 ], [ null, %.preheader ]
  %12 = tail call i32 @hwloc_get_type_depth(ptr noundef %0, i32 noundef 13) #18
  %or.cond.i.i = icmp ugt i32 %12, -3
  br i1 %or.cond.i.i, label %hwloc_get_numanode_obj_by_os_index.exit, label %13

13:                                               ; preds = %11
  %.not.i.i.i = icmp eq ptr %.0.i, null
  br i1 %.not.i.i.i, label %14, label %16

14:                                               ; preds = %13
  %15 = tail call ptr @hwloc_get_obj_by_depth(ptr noundef readonly %0, i32 noundef range(i32 0, -2) %12, i32 noundef 0) #19
  br label %hwloc_get_next_obj_by_type.exit.i

16:                                               ; preds = %13
  %17 = getelementptr inbounds nuw i8, ptr %.0.i, i64 48
  %18 = load i32, ptr %17, align 8, !tbaa !41
  %.not7.i.i.i = icmp eq i32 %18, %12
  br i1 %.not7.i.i.i, label %19, label %hwloc_get_numanode_obj_by_os_index.exit

19:                                               ; preds = %16
  %20 = getelementptr inbounds nuw i8, ptr %.0.i, i64 56
  %21 = load ptr, ptr %20, align 8, !tbaa !42
  br label %hwloc_get_next_obj_by_type.exit.i

hwloc_get_next_obj_by_type.exit.i:                ; preds = %19, %14
  %.0.i.i = phi ptr [ %21, %19 ], [ %15, %14 ]
  %.not.i = icmp eq ptr %.0.i.i, null
  br i1 %.not.i, label %hwloc_get_numanode_obj_by_os_index.exit, label %22

22:                                               ; preds = %hwloc_get_next_obj_by_type.exit.i
  %23 = getelementptr inbounds nuw i8, ptr %.0.i.i, i64 16
  %24 = load i32, ptr %23, align 8, !tbaa !43
  %25 = icmp eq i32 %24, %.01627
  br i1 %25, label %hwloc_get_numanode_obj_by_os_index.exit, label %11, !llvm.loop !44

hwloc_get_numanode_obj_by_os_index.exit:          ; preds = %11, %16, %hwloc_get_next_obj_by_type.exit.i, %22
  %not..05.i = phi i32 [ 1, %22 ], [ 0, %hwloc_get_next_obj_by_type.exit.i ], [ 0, %11 ], [ 0, %16 ]
  %spec.select = add i32 %not..05.i, %.01726
  %26 = add nuw i32 %.01627, 1
  %27 = load i32, ptr %9, align 4, !tbaa !40
  %28 = icmp ult i32 %26, %27
  br i1 %28, label %.preheader, label %hwloc_get_nbobjs_by_type.exit.thread23, !llvm.loop !83

29:                                               ; preds = %2
  %30 = tail call i32 @hwloc_get_type_depth(ptr noundef %0, i32 noundef %1) #18
  switch i32 %30, label %hwloc_get_nbobjs_by_type.exit [
    i32 -1, label %hwloc_get_nbobjs_by_type.exit.thread23
    i32 -2, label %hwloc_get_nbobjs_by_type.exit.thread
  ]

hwloc_get_nbobjs_by_type.exit:                    ; preds = %29
  %31 = tail call i32 @hwloc_get_nbobjs_by_depth(ptr noundef %0, i32 noundef %30) #19
  %32 = icmp eq i32 %31, -1
  br i1 %32, label %hwloc_get_nbobjs_by_type.exit.thread, label %hwloc_get_nbobjs_by_type.exit.thread23

hwloc_get_nbobjs_by_type.exit.thread:             ; preds = %29, %hwloc_get_nbobjs_by_type.exit
  tail call void (i32, ptr, ...) @pmix_output(i32 noundef 0, ptr noundef nonnull @.str.22) #18
  br label %hwloc_get_nbobjs_by_type.exit.thread23

hwloc_get_nbobjs_by_type.exit.thread23:           ; preds = %hwloc_get_numanode_obj_by_os_index.exit, %.preheader25, %29, %hwloc_get_nbobjs_by_type.exit, %4, %hwloc_get_nbobjs_by_type.exit.thread
  %.0 = phi i32 [ 0, %hwloc_get_nbobjs_by_type.exit.thread ], [ 0, %4 ], [ %31, %hwloc_get_nbobjs_by_type.exit ], [ 0, %29 ], [ 0, %.preheader25 ], [ %spec.select, %hwloc_get_numanode_obj_by_os_index.exit ]
  ret i32 %.0
}